target datalayout = "e-m:e-p270:32:32-p271:32:32-p272:64:64-i64:64-i128:128-f80:128-n8:16:32:64-S128"
target triple = "x86_64-pc-linux-gnu"

%struct.LogicalDecodingContext = type { ptr, ptr, ptr, ptr, ptr, i8, %struct.OutputPluginCallbacks, %struct.OutputPluginOptions, ptr, ptr, ptr, ptr, ptr, ptr, ptr, i8, i8, i8, i8, i8, i64, i32, i8, i8 }
%struct.OutputPluginCallbacks = type { ptr, ptr, ptr, ptr, ptr, ptr, ptr, ptr, ptr, ptr, ptr, ptr, ptr, ptr, ptr, ptr, ptr, ptr, ptr, ptr, ptr }
%struct.OutputPluginOptions = type { i32, i8 }
%struct.ReorderBuffer = type { ptr, %struct.dlist_head, %struct.dlist_head, %struct.dclist_head, i32, ptr, ptr, ptr, ptr, ptr, ptr, ptr, ptr, ptr, ptr, ptr, ptr, ptr, ptr, ptr, ptr, ptr, ptr, ptr, ptr, i8, ptr, ptr, ptr, ptr, i64, ptr, i64, i64, ptr, i64, i64, i64, i64, i64, i64, i64, i64 }
%struct.dlist_head = type { %struct.dlist_node }
%struct.dlist_node = type { ptr, ptr }
%struct.dclist_head = type { %struct.dlist_head, i32 }
%struct.LogicalErrorCallbackState = type { ptr, ptr, i64 }
%struct.ErrorContextCallback = type { ptr, ptr, ptr }
%struct.ReorderBufferTXN = type { i32, i32, i32, ptr, i64, i64, i64, ptr, i64, i16, i64, %union.anon, ptr, i64, %struct.dlist_node, ptr, i32, i64, i64, %struct.dlist_head, %struct.dlist_head, i64, ptr, ptr, %struct.dlist_head, i32, i32, ptr, %struct.dlist_node, %struct.dlist_node, %struct.pairingheap_node, i64, i64, ptr }
%union.anon = type { i64 }
%struct.pairingheap_node = type { ptr, ptr, ptr }

@error_context_stack = external global ptr, align 8
@.str.56 = private unnamed_addr constant [15 x i8] c"stream_message\00", align 1

; Function Attrs: nounwind uwtable
define internal void @stream_message_cb_wrapper(ptr noundef %0, ptr noundef %1, i64 noundef %2, i1 noundef zeroext %3, ptr noundef %4, i64 noundef %5, ptr noundef %6) #0 {
  %8 = alloca ptr, align 8
  %9 = alloca ptr, align 8
  %10 = alloca i64, align 8
  %11 = alloca i8, align 1
  %12 = alloca ptr, align 8
  %13 = alloca i64, align 8
  %14 = alloca ptr, align 8
  %15 = alloca ptr, align 8
  %16 = alloca %struct.LogicalErrorCallbackState, align 8
  %17 = alloca %struct.ErrorContextCallback, align 8
  %18 = alloca i32, align 4
  store ptr %0, ptr %8, align 8
  store ptr %1, ptr %9, align 8
  store i64 %2, ptr %10, align 8
  %19 = zext i1 %3 to i8
  store i8 %19, ptr %11, align 1
  store ptr %4, ptr %12, align 8
  store i64 %5, ptr %13, align 8
  store ptr %6, ptr %14, align 8
  call void @llvm.lifetime.start.p0(i64 8, ptr %15) #10
  %20 = load ptr, ptr %8, align 8
  %21 = getelementptr inbounds nuw %struct.ReorderBuffer, ptr %20, i32 0, i32 24
  %22 = load ptr, ptr %21, align 8
  store ptr %22, ptr %15, align 8
  call void @llvm.lifetime.start.p0(i64 24, ptr %16) #10
  call void @llvm.lifetime.start.p0(i64 24, ptr %17) #10
  %23 = load ptr, ptr %15, align 8
  %24 = getelementptr inbounds nuw %struct.LogicalDecodingContext, ptr %23, i32 0, i32 6
  %25 = getelementptr inbounds nuw %struct.OutputPluginCallbacks, ptr %24, i32 0, i32 19
  %26 = load ptr, ptr %25, align 8
  %27 = icmp eq ptr %26, null
  br i1 %27, label %28, label %29

28:                                               ; preds = %7
  store i32 1, ptr %18, align 4
  br label %71

29:                                               ; preds = %7
  %30 = load ptr, ptr %15, align 8
  %31 = getelementptr inbounds nuw %struct.LogicalErrorCallbackState, ptr %16, i32 0, i32 0
  store ptr %30, ptr %31, align 8
  %32 = getelementptr inbounds nuw %struct.LogicalErrorCallbackState, ptr %16, i32 0, i32 1
  store ptr @.str.56, ptr %32, align 8
  %33 = load i64, ptr %10, align 8
  %34 = getelementptr inbounds nuw %struct.LogicalErrorCallbackState, ptr %16, i32 0, i32 2
  store i64 %33, ptr %34, align 8
  %35 = getelementptr inbounds nuw %struct.ErrorContextCallback, ptr %17, i32 0, i32 1
  store ptr @output_plugin_error_callback, ptr %35, align 8
  %36 = getelementptr inbounds nuw %struct.ErrorContextCallback, ptr %17, i32 0, i32 2
  store ptr %16, ptr %36, align 8
  %37 = load ptr, ptr @error_context_stack, align 8
  %38 = getelementptr inbounds nuw %struct.ErrorContextCallback, ptr %17, i32 0, i32 0
  store ptr %37, ptr %38, align 8
  store ptr %17, ptr @error_context_stack, align 8
  %39 = load ptr, ptr %15, align 8
  %40 = getelementptr inbounds nuw %struct.LogicalDecodingContext, ptr %39, i32 0, i32 18
  store i8 1, ptr %40, align 1
  %41 = load ptr, ptr %9, align 8
  %42 = icmp ne ptr %41, null
  br i1 %42, label %43, label %47

43:                                               ; preds = %29
  %44 = load ptr, ptr %9, align 8
  %45 = getelementptr inbounds nuw %struct.ReorderBufferTXN, ptr %44, i32 0, i32 1
  %46 = load i32, ptr %45, align 4
  br label %48

47:                                               ; preds = %29
  br label %48

48:                                               ; preds = %47, %43
  %49 = phi i32 [ %46, %43 ], [ 0, %47 ]
  %50 = load ptr, ptr %15, align 8
  %51 = getelementptr inbounds nuw %struct.LogicalDecodingContext, ptr %50, i32 0, i32 21
  store i32 %49, ptr %51, align 8
  %52 = load i64, ptr %10, align 8
  %53 = load ptr, ptr %15, align 8
  %54 = getelementptr inbounds nuw %struct.LogicalDecodingContext, ptr %53, i32 0, i32 20
  store i64 %52, ptr %54, align 8
  %55 = load ptr, ptr %15, align 8
  %56 = getelementptr inbounds nuw %struct.LogicalDecodingContext, ptr %55, i32 0, i32 22
  store i8 0, ptr %56, align 4
  %57 = load ptr, ptr %15, align 8
  %58 = getelementptr inbounds nuw %struct.LogicalDecodingContext, ptr %57, i32 0, i32 6
  %59 = getelementptr inbounds nuw %struct.OutputPluginCallbacks, ptr %58, i32 0, i32 19
  %60 = load ptr, ptr %59, align 8
  %61 = load ptr, ptr %15, align 8
  %62 = load ptr, ptr %9, align 8
  %63 = load i64, ptr %10, align 8
  %64 = load i8, ptr %11, align 1, !range !6, !noundef !7
  %65 = trunc i8 %64 to i1
  %66 = load ptr, ptr %12, align 8
  %67 = load i64, ptr %13, align 8
  %68 = load ptr, ptr %14, align 8
  call void %60(ptr noundef %61, ptr noundef %62, i64 noundef %63, i1 noundef zeroext %65, ptr noundef %66, i64 noundef %67, ptr noundef %68)
  %69 = getelementptr inbounds nuw %struct.ErrorContextCallback, ptr %17, i32 0, i32 0
  %70 = load ptr, ptr %69, align 8
  store ptr %70, ptr @error_context_stack, align 8
  store i32 0, ptr %18, align 4
  br label %71

71:                                               ; preds = %48, %28
  call void @llvm.lifetime.end.p0(i64 24, ptr %17) #10
  call void @llvm.lifetime.end.p0(i64 24, ptr %16) #10
  call void @llvm.lifetime.end.p0(i64 8, ptr %15) #10
  %72 = load i32, ptr %18, align 4
  switch i32 %72, label %74 [
    i32 0, label %73
    i32 1, label %73
  ]

73:                                               ; preds = %71, %71
  ret void

74:                                               ; preds = %71
  unreachable
}